target datalayout = "e-m:e-p270:32:32-p271:32:32-p272:64:64-i64:64-i128:128-f80:128-n8:16:32:64-S128"
target triple = "x86_64-unknown-linux-gnu"

%class.symbol = type { ptr }
%"class.recfun::case_def" = type <{ %class.obj_ref, %class.ref_vector, %class.obj_ref.0, ptr, i8, [7 x i8] }>
%class.obj_ref = type { ptr, ptr }
%class.ref_vector = type { %class.ref_vector_core }
%class.ref_vector_core = type { %class.ref_manager_wrapper, %class.ptr_vector }
%class.ref_manager_wrapper = type { ptr }
%class.ptr_vector = type { %class.vector }
%class.vector = type { ptr }
%class.obj_ref.0 = type { ptr, ptr }
%"class.recfun::def" = type <{ ptr, %class.symbol, %class.ref_vector.42, %class.obj_ref.47, %class.ref_vector.48, %class.vector.53, %class.obj_ref, %class.obj_ref.0, i32, i8, [3 x i8] }>
%class.ref_vector.42 = type { %class.ref_vector_core.43 }
%class.ref_vector_core.43 = type { %class.ref_manager_wrapper.44, %class.ptr_vector.45 }
%class.ref_manager_wrapper.44 = type { ptr }
%class.ptr_vector.45 = type { %class.vector.46 }
%class.vector.46 = type { ptr }
%class.obj_ref.47 = type { ptr, ptr }
%class.ref_vector.48 = type { %class.ref_vector_core.49 }
%class.ref_vector_core.49 = type { %class.ref_manager_wrapper.50, %class.ptr_vector.51 }
%class.ref_manager_wrapper.50 = type { ptr }
%class.ptr_vector.51 = type { %class.vector.52 }
%class.vector.52 = type { ptr }
%class.vector.53 = type { ptr }
%"class.recfun::promise_def" = type { ptr, ptr }
%"class.recfun::decl::plugin" = type <{ %class.decl_plugin.base, [4 x i8], %class.scoped_ptr, %class.obj_map.66, %class.obj_map.71, i8, [7 x i8] }>
%class.decl_plugin.base = type <{ ptr, ptr, i32 }>
%class.scoped_ptr = type { ptr }
%class.obj_map.66 = type { %class.core_hashtable.67 }
%class.core_hashtable.67 = type <{ ptr, i32, i32, i32, [4 x i8] }>
%class.obj_map.71 = type { %class.core_hashtable.72 }
%class.core_hashtable.72 = type <{ ptr, i32, i32, i32, [4 x i8] }>
%"struct.obj_map<func_decl, recfun::case_def *>::key_data" = type { ptr, ptr }

; Function Attrs: mustprogress nounwind uwtable
define linkonce_odr hidden void @_ZN7obj_mapI9func_declPN6recfun8case_defEE8key_dataC2EPS0_OS3_(ptr noundef nonnull align 8 dereferenceable(16) %this, ptr noundef %k, ptr noundef nonnull align 8 dereferenceable(8) %v) unnamed_addr #5 comdat align 2 {
entry:
  %this.addr = alloca ptr, align 8
  %k.addr = alloca ptr, align 8
  %v.addr = alloca ptr, align 8
  store ptr %this, ptr %this.addr, align 8
  store ptr %k, ptr %k.addr, align 8
  store ptr %v, ptr %v.addr, align 8
  %this1 = load ptr, ptr %this.addr, align 8
  %m_key = getelementptr inbounds %"struct.obj_map<func_decl, recfun::case_def *>::key_data", ptr %this1, i32 0, i32 0
  %0 = load ptr, ptr %k.addr, align 8
  store ptr %0, ptr %m_key, align 8
  %m_value = getelementptr inbounds %"struct.obj_map<func_decl, recfun::case_def *>::key_data", ptr %this1, i32 0, i32 1
  %1 = load ptr, ptr %v.addr, align 8
  %2 = load ptr, ptr %1, align 8
  store ptr %2, ptr %m_value, align 8
  ret void
}

; Function Attrs: mustprogress nounwind uwtable
define linkonce_odr hidden noundef ptr @_ZNK7obj_refI9func_decl11ast_managerEcvPS0_Ev(ptr noundef nonnull align 8 dereferenceable(16) %this) #5 comdat align 2 {
entry:
  %this.addr = alloca ptr, align 8
  store ptr %this, ptr %this.addr, align 8
  %this1 = load ptr, ptr %this.addr, align 8
  %m_obj = getelementptr inbounds %class.obj_ref, ptr %this1, i32 0, i32 0
  %0 = load ptr, ptr %m_obj, align 8
  ret ptr %0
}

; Function Attrs: mustprogress nounwind uwtable
define linkonce_odr hidden noundef i32 @_ZNK6vectorIN6recfun8case_defELb1EjE4sizeEv(ptr noundef nonnull align 8 dereferenceable(8) %this) #5 comdat align 2 {
entry:
  %retval = alloca i32, align 4
  %this.addr = alloca ptr, align 8
  store ptr %this, ptr %this.addr, align 8
  %this1 = load ptr, ptr %this.addr, align 8
  %m_data = getelementptr inbounds %class.vector.53, ptr %this1, i32 0, i32 0
  %0 = load ptr, ptr %m_data, align 8
  %cmp = icmp eq ptr %0, null
  br i1 %cmp, label %if.then, label %if.end

if.then:                                          ; preds = %entry
  store i32 0, ptr %retval, align 4
  br label %return

if.end:                                           ; preds = %entry
  %m_data2 = getelementptr inbounds %class.vector.53, ptr %this1, i32 0, i32 0
  %1 = load ptr, ptr %m_data2, align 8
  %arrayidx = getelementptr inbounds i32, ptr %1, i64 -1
  %2 = load i32, ptr %arrayidx, align 4
  store i32 %2, ptr %retval, align 4
  br label %return

return:                                           ; preds = %if.end, %if.then
  %3 = load i32, ptr %retval, align 4
  ret i32 %3
}

; Function Attrs: mustprogress uwtable
define linkonce_odr hidden void @_ZN7obj_mapI9func_declPN6recfun8case_defEE6insertEPS0_OS3_(ptr noundef nonnull align 8 dereferenceable(24) %this, ptr noundef %k, ptr noundef nonnull align 8 dereferenceable(8) %v) #4 comdat align 2 {
entry:
  %this.addr = alloca ptr, align 8
  %k.addr = alloca ptr, align 8
  %v.addr = alloca ptr, align 8
  %ref.tmp = alloca %"struct.obj_map<func_decl, recfun::case_def *>::key_data", align 8
  store ptr %this, ptr %this.addr, align 8
  store ptr %k, ptr %k.addr, align 8
  store ptr %v, ptr %v.addr, align 8
  %this1 = load ptr, ptr %this.addr, align 8
  %m_table = getelementptr inbounds %class.obj_map.71, ptr %this1, i32 0, i32 0
  %0 = load ptr, ptr %k.addr, align 8
  %1 = load ptr, ptr %v.addr, align 8
  call void @_ZN7obj_mapI9func_declPN6recfun8case_defEE8key_dataC2EPS0_OS3_(ptr noundef nonnull align 8 dereferenceable(16) %ref.tmp, ptr noundef %0, ptr noundef nonnull align 8 dereferenceable(8) %1)
  call void @_ZN14core_hashtableIN7obj_mapI9func_declPN6recfun8case_defEE13obj_map_entryE8obj_hashINS5_8key_dataEE10default_eqIS8_EE6insertEOS8_(ptr noundef nonnull align 8 dereferenceable(20) %m_table, ptr noundef nonnull align 8 dereferenceable(16) %ref.tmp)
  ret void
}

; Function Attrs: mustprogress uwtable
define linkonce_odr hidden noundef ptr @_ZNK6recfun8case_def8get_declEv(ptr noundef nonnull align 8 dereferenceable(57) %this) #4 comdat align 2 {
entry:
  %this.addr = alloca ptr, align 8
  store ptr %this, ptr %this.addr, align 8
  %this1 = load ptr, ptr %this.addr, align 8
  %m_pred = getelementptr inbounds %"class.recfun::case_def", ptr %this1, i32 0, i32 0
  %call = call noundef ptr @_ZNK7obj_refI9func_decl11ast_managerEcvPS0_Ev(ptr noundef nonnull align 8 dereferenceable(16) %m_pred)
  ret ptr %call
}

; Function Attrs: mustprogress nounwind uwtable
define linkonce_odr hidden noundef ptr @_ZN6vectorIN6recfun8case_defELb1EjE3endEv(ptr noundef nonnull align 8 dereferenceable(8) %this) #5 comdat align 2 {
entry:
  %this.addr = alloca ptr, align 8
  store ptr %this, ptr %this.addr, align 8
  %this1 = load ptr, ptr %this.addr, align 8
  %m_data = getelementptr inbounds %class.vector.53, ptr %this1, i32 0, i32 0
  %0 = load ptr, ptr %m_data, align 8
  %call = call noundef i32 @_ZNK6vectorIN6recfun8case_defELb1EjE4sizeEv(ptr noundef nonnull align 8 dereferenceable(8) %this1)
  %idx.ext = zext i32 %call to i64
  %add.ptr = getelementptr inbounds %"class.recfun::case_def", ptr %0, i64 %idx.ext
  ret ptr %add.ptr
}

; Function Attrs: mustprogress nounwind uwtable
define linkonce_odr hidden noundef ptr @_ZN6vectorIN6recfun8case_defELb1EjE5beginEv(ptr noundef nonnull align 8 dereferenceable(8) %this) #5 comdat align 2 {
entry:
  %this.addr = alloca ptr, align 8
  store ptr %this, ptr %this.addr, align 8
  %this1 = load ptr, ptr %this.addr, align 8
  %m_data = getelementptr inbounds %class.vector.53, ptr %this1, i32 0, i32 0
  %0 = load ptr, ptr %m_data, align 8
  ret ptr %0
}

; Function Attrs: mustprogress nounwind uwtable
define linkonce_odr hidden noundef nonnull align 8 dereferenceable(8) ptr @_ZN6recfun3def9get_casesEv(ptr noundef nonnull align 8 dereferenceable(109) %this) #5 comdat align 2 {
entry:
  %this.addr = alloca ptr, align 8
  store ptr %this, ptr %this.addr, align 8
  %this1 = load ptr, ptr %this.addr, align 8
  %m_cases = getelementptr inbounds %"class.recfun::def", ptr %this1, i32 0, i32 5
  ret ptr %m_cases
}

; Function Attrs: mustprogress nounwind uwtable
define linkonce_odr hidden noundef ptr @_ZNK6recfun11promise_def7get_defEv(ptr noundef nonnull align 8 dereferenceable(16) %this) #5 comdat align 2 {
entry:
  %this.addr = alloca ptr, align 8
  store ptr %this, ptr %this.addr, align 8
  %this1 = load ptr, ptr %this.addr, align 8
  %d = getelementptr inbounds %"class.recfun::promise_def", ptr %this1, i32 0, i32 1
  %0 = load ptr, ptr %d, align 8
  ret ptr %0
}

; Function Attrs: mustprogress uwtable
define hidden void @_ZN6recfun4decl6plugin14set_definitionERNS_7replaceERNS_11promise_defEbjPKP3varP4expr(ptr noundef nonnull align 8 dereferenceable(81) %this, ptr noundef nonnull align 8 dereferenceable(8) %r, ptr noundef nonnull align 8 dereferenceable(16) %d, i1 noundef zeroext %is_macro, i32 noundef %n_vars, ptr noundef %vars, ptr noundef %rhs) #4 align 2 {
entry:
  %this.addr = alloca ptr, align 8
  %r.addr = alloca ptr, align 8
  %d.addr = alloca ptr, align 8
  %is_macro.addr = alloca i8, align 1
  %n_vars.addr = alloca i32, align 4
  %vars.addr = alloca ptr, align 8
  %rhs.addr = alloca ptr, align 8
  %__range2 = alloca ptr, align 8
  %__begin2 = alloca ptr, align 8
  %__end2 = alloca ptr, align 8
  %c = alloca ptr, align 8
  %ref.tmp = alloca ptr, align 8
  store ptr %this, ptr %this.addr, align 8
  store ptr %r, ptr %r.addr, align 8
  store ptr %d, ptr %d.addr, align 8
  %frombool = zext i1 %is_macro to i8
  store i8 %frombool, ptr %is_macro.addr, align 1
  store i32 %n_vars, ptr %n_vars.addr, align 4
  store ptr %vars, ptr %vars.addr, align 8
  store ptr %rhs, ptr %rhs.addr, align 8
  %this1 = load ptr, ptr %this.addr, align 8
  %0 = load i8, ptr %is_macro.addr, align 1
  %tobool = trunc i8 %0 to i1
  %lnot = xor i1 %tobool, true
  %conv = zext i1 %lnot to i32
  %m_has_rec_defs = getelementptr inbounds %"class.recfun::decl::plugin", ptr %this1, i32 0, i32 5
  %1 = load i8, ptr %m_has_rec_defs, align 8
  %tobool2 = trunc i8 %1 to i1
  %conv3 = zext i1 %tobool2 to i32
  %or = or i32 %conv3, %conv
  %tobool4 = icmp ne i32 %or, 0
  %frombool5 = zext i1 %tobool4 to i8
  store i8 %frombool5, ptr %m_has_rec_defs, align 8
  %call = call noundef nonnull align 8 dereferenceable(24) ptr @_ZNK6recfun4decl6plugin1uEv(ptr noundef nonnull align 8 dereferenceable(81) %this1)
  %2 = load ptr, ptr %r.addr, align 8
  %3 = load ptr, ptr %d.addr, align 8
  %4 = load i8, ptr %is_macro.addr, align 1
  %tobool6 = trunc i8 %4 to i1
  %5 = load i32, ptr %n_vars.addr, align 4
  %6 = load ptr, ptr %vars.addr, align 8
  %7 = load ptr, ptr %rhs.addr, align 8
  call void @_ZN6recfun4util14set_definitionERNS_7replaceERNS_11promise_defEbjPKP3varP4expr(ptr noundef nonnull align 8 dereferenceable(24) %call, ptr noundef nonnull align 8 dereferenceable(8) %2, ptr noundef nonnull align 8 dereferenceable(16) %3, i1 noundef zeroext %tobool6, i32 noundef %5, ptr noundef %6, ptr noundef %7)
  %8 = load ptr, ptr %d.addr, align 8
  %call7 = call noundef ptr @_ZNK6recfun11promise_def7get_defEv(ptr noundef nonnull align 8 dereferenceable(16) %8)
  %call8 = call noundef nonnull align 8 dereferenceable(8) ptr @_ZN6recfun3def9get_casesEv(ptr noundef nonnull align 8 dereferenceable(109) %call7)
  store ptr %call8, ptr %__range2, align 8
  %9 = load ptr, ptr %__range2, align 8
  %call9 = call noundef ptr @_ZN6vectorIN6recfun8case_defELb1EjE5beginEv(ptr noundef nonnull align 8 dereferenceable(8) %9)
  store ptr %call9, ptr %__begin2, align 8
  %10 = load ptr, ptr %__range2, align 8
  %call10 = call noundef ptr @_ZN6vectorIN6recfun8case_defELb1EjE3endEv(ptr noundef nonnull align 8 dereferenceable(8) %10)
  store ptr %call10, ptr %__end2, align 8
  br label %for.cond

for.cond:                                         ; preds = %for.inc, %entry
  %11 = load ptr, ptr %__begin2, align 8
  %12 = load ptr, ptr %__end2, align 8
  %cmp = icmp ne ptr %11, %12
  br i1 %cmp, label %for.body, label %for.end

for.body:                                         ; preds = %for.cond
  %13 = load ptr, ptr %__begin2, align 8
  store ptr %13, ptr %c, align 8
  %m_case_defs = getelementptr inbounds %"class.recfun::decl::plugin", ptr %this1, i32 0, i32 4
  %14 = load ptr, ptr %c, align 8
  %call11 = call noundef ptr @_ZNK6recfun8case_def8get_declEv(ptr noundef nonnull align 8 dereferenceable(57) %14)
  %15 = load ptr, ptr %c, align 8
  store ptr %15, ptr %ref.tmp, align 8
  call void @_ZN7obj_mapI9func_declPN6recfun8case_defEE6insertEPS0_OS3_(ptr noundef nonnull align 8 dereferenceable(24) %m_case_defs, ptr noundef %call11, ptr noundef nonnull align 8 dereferenceable(8) %ref.tmp)
  br label %for.inc

for.inc:                                          ; preds = %for.body
  %16 = load ptr, ptr %__begin2, align 8
  %incdec.ptr = getelementptr inbounds %"class.recfun::case_def", ptr %16, i32 1
  store ptr %incdec.ptr, ptr %__begin2, align 8
  br label %for.cond

for.end:                                          ; preds = %for.cond
  ret void
}