; Function Attrs: mustprogress uwtable
define hidden void @_ZN6recfun4decl6plugin14set_definitionERNS_7replaceERNS_11promise_defEbjPKP3varP4expr(ptr noundef nonnull align 8 dereferenceable(81) %this, ptr noundef nonnull align 8 dereferenceable(8) %r, ptr nocapture noundef nonnull readonly align 8 dereferenceable(16) %d, i1 noundef zeroext %is_macro, i32 noundef %n_vars, ptr nocapture noundef readonly %vars, ptr noundef %rhs) local_unnamed_addr #3 align 2 {
entry:
  %ref.tmp.i = alloca %"struct.obj_map<func_decl, recfun::case_def *>::key_data", align 8
  %lnot = xor i1 %is_macro, true
  %m_has_rec_defs = getelementptr inbounds i8, ptr %this, i64 80
  %0 = load i8, ptr %m_has_rec_defs, align 8
  %1 = and i8 %0, 1
  %2 = zext i1 %lnot to i8
  %3 = or i8 %1, %2
  store i8 %3, ptr %m_has_rec_defs, align 8
  %call = tail call noundef nonnull align 8 dereferenceable(24) ptr @_ZNK6recfun4decl6plugin1uEv(ptr noundef nonnull align 8 dereferenceable(81) %this)
  tail call void @_ZN6recfun4util14set_definitionERNS_7replaceERNS_11promise_defEbjPKP3varP4expr(ptr noundef nonnull align 8 dereferenceable(24) %call, ptr noundef nonnull align 8 dereferenceable(8) %r, ptr noundef nonnull align 8 dereferenceable(16) %d, i1 noundef zeroext %is_macro, i32 noundef %n_vars, ptr noundef %vars, ptr noundef %rhs)
  %d.i = getelementptr inbounds i8, ptr %d, i64 8
  %4 = load ptr, ptr %d.i, align 8
  %m_cases.i = getelementptr inbounds i8, ptr %4, i64 64
  %5 = load ptr, ptr %m_cases.i, align 8
  %cmp.i.i = icmp eq ptr %5, null
  br i1 %cmp.i.i, label %for.end, label %_ZN6vectorIN6recfun8case_defELb1EjE3endEv.exit

_ZN6vectorIN6recfun8case_defELb1EjE3endEv.exit:   ; preds = %entry
  %arrayidx.i.i = getelementptr inbounds i8, ptr %5, i64 -4
  %6 = load i32, ptr %arrayidx.i.i, align 4
  %7 = zext i32 %6 to i64
  %add.ptr.i = getelementptr inbounds %"class.recfun::case_def", ptr %5, i64 %7
  %cmp.not7 = icmp eq i32 %6, 0
  br i1 %cmp.not7, label %for.end, label %for.body.lr.ph

for.body.lr.ph:                                   ; preds = %_ZN6vectorIN6recfun8case_defELb1EjE3endEv.exit
  %m_case_defs = getelementptr inbounds i8, ptr %this, i64 56
  %m_value.i.i = getelementptr inbounds i8, ptr %ref.tmp.i, i64 8
  br label %for.body

for.body:                                         ; preds = %for.body.lr.ph, %for.body
  %__begin2.08 = phi ptr [ %5, %for.body.lr.ph ], [ %incdec.ptr, %for.body ]
  %8 = load ptr, ptr %__begin2.08, align 8
  call void @llvm.lifetime.start.p0(i64 16, ptr nonnull %ref.tmp.i)
  store ptr %8, ptr %ref.tmp.i, align 8
  store ptr %__begin2.08, ptr %m_value.i.i, align 8
  call void @_ZN14core_hashtableIN7obj_mapI9func_declPN6recfun8case_defEE13obj_map_entryE8obj_hashINS5_8key_dataEE10default_eqIS8_EE6insertEOS8_(ptr noundef nonnull align 8 dereferenceable(20) %m_case_defs, ptr noundef nonnull align 8 dereferenceable(16) %ref.tmp.i)
  call void @llvm.lifetime.end.p0(i64 16, ptr nonnull %ref.tmp.i)
  %incdec.ptr = getelementptr inbounds i8, ptr %__begin2.08, i64 64
  %cmp.not = icmp eq ptr %incdec.ptr, %add.ptr.i
  br i1 %cmp.not, label %for.end, label %for.body

for.end:                                          ; preds = %for.body, %entry, %_ZN6vectorIN6recfun8case_defELb1EjE3endEv.exit
  ret void
}